(dp0
S'OriginalConfig'
p1
ccopy_reg
_reconstructor
p2
(cWMCore.Configuration
Configuration
p3
c__builtin__
object
p4
Ntp5
Rp6
(dp7
S'Site'
p8
g2
(cWMCore.Configuration
ConfigSection
p9
g4
Ntp10
Rp11
(dp12
S'_internal_skipChecks'
p13
I00
sS'_internal_documentation'
p14
S''
p15
sS'_internal_settings'
p16
c__builtin__
set
p17
((lp18
S'storageSite'
p19
atp20
Rp21
sS'_internal_name'
p22
g8
sS'_internal_docstrings'
p23
(dp24
sS'_internal_children'
p25
g17
((lp26
tp27
Rp28
sg19
S'T2_DE_DESY'
p29
sS'_internal_parent_ref'
p30
NsbsS'_internal_sections'
p31
(lp32
S'General'
p33
aS'JobType'
p34
aS'Data'
p35
ag8
aS'User'
p36
aS'Debug'
p37
asg36
g2
(g9
g4
Ntp38
Rp39
(dp40
g13
I00
sg14
g15
sg16
g17
((lp41
tp42
Rp43
sg22
g36
sg23
(dp44
sg25
g17
((lp45
tp46
Rp47
sg30
Nsbsg37
g2
(g9
g4
Ntp48
Rp49
(dp50
g13
I00
sg14
g15
sg16
g17
((lp51
tp52
Rp53
sg22
g37
sg23
(dp54
sg25
g17
((lp55
tp56
Rp57
sg30
Nsbsg33
g2
(g9
g4
Ntp58
Rp59
(dp60
S'transferLogs'
p61
I00
sg13
I00
sg14
g15
sg16
g17
((lp62
g61
aS'transferOutputs'
p63
aS'workArea'
p64
aS'requestName'
p65
atp66
Rp67
sg22
g33
sg23
(dp68
sg63
I01
sg25
g17
((lp69
tp70
Rp71
sg65
S'LHEMttbarAnalyzer_MTT700to900_RunIISummer20UL17_bining_10000'
p72
sg30
Nsg64
S'crab_projects_bining_10000'
p73
sbsg35
g2
(g9
g4
Ntp74
Rp75
(dp76
S'inputDataset'
p77
S'/TTtoLNu2Q-1Jets-smeft_MTT-700to900_TuneCP5_13TeV_madgraphMLM-pythia8/RunIISummer20UL17MiniAODv2-106X_mc2017_realistic_v9-v2/MINIAODSIM'
p78
sS'outputDatasetTag'
p79
g72
sg13
I00
sS'splitting'
p80
S'FileBased'
p81
sS'unitsPerJob'
p82
I5
sg14
g15
sg16
g17
((lp83
g77
ag79
aS'publication'
p84
ag82
aS'inputDBS'
p85
ag80
aS'outLFNDirBase'
p86
atp87
Rp88
sg22
g35
sg85
S'global'
p89
sg23
(dp90
sg25
g17
((lp91
tp92
Rp93
sg86
S'/store/user/beozek/LHEMttbarAnalyzer/MTT700to900_bining_10000/'
p94
sg30
Nsg84
I00
sbsg34
g2
(g9
g4
Ntp95
Rp96
(dp97
g13
I00
sg14
g15
sg16
g17
((lp98
S'psetName'
p99
aS'pluginName'
p100
aS'allowUndistributedCMSSW'
p101
atp102
Rp103
sg22
g34
sg23
(dp104
sg100
S'Analysis'
p105
sg25
g17
((lp106
tp107
Rp108
sg101
I01
sg99
S'cfg_700_900.py'
p109
sg30
NsbsbsS'voGroup'
p110
g15
sS'Server'
p111
S'cmsweb.cern.ch'
p112
sS'instance'
p113
S'prod'
p114
sS'RequestName'
p115
V250213_033720:beozek_crab_LHEMttbarAnalyzer_MTT700to900_RunIISummer20UL17_bining_10000
p116
sS'voRole'
p117
S'NULL'
p118
sS'Port'
p119
g15
s.