ccopy_reg
_reconstructor
p0
(cFWCore.ParameterSet.Config
Process
p1
c__builtin__
object
p2
Ntp3
Rp4
(dp5
S'MessageLogger'
p6
g0
(cFWCore.ParameterSet.Modules
Service
p7
g2
Ntp8
Rp9
(dp10
S'_isFrozen'
p11
I00
sS'suppressInfo'
p12
g0
(cFWCore.ParameterSet.Types
vstring
p13
c__builtin__
list
p14
(lp15
tp16
Rp17
(dp18
g11
I00
sS'_ParameterTypeBase__isTracked'
p19
I00
sS'_isModified'
p20
I00
sS'_nPerLine'
p21
I1
sbsS'suppressDebug'
p22
g0
(g13
g14
(lp23
tp24
Rp25
(dp26
g11
I00
sg19
I00
sg20
I00
sg21
I1
sbsS'cout'
p27
g0
(cFWCore.ParameterSet.Types
PSet
p28
g2
Ntp29
Rp30
(dp31
g11
I00
sg19
I00
sS'placeholder'
p32
g0
(cFWCore.ParameterSet.Types
bool
p33
g2
Ntp34
Rp35
(dp36
g11
I00
sg19
I00
sS'_value'
p37
I01
sg20
I00
sbsg20
I00
sS'_Parameterizable__parameterNames'
p38
(lp39
g32
asbsS'_lineNumber'
p40
I14
sS'debugModules'
p41
g0
(g13
g14
(lp42
tp43
Rp44
(dp45
g11
I00
sg19
I00
sg20
I00
sg21
I1
sbsS'_TypedParameterizable__type'
p46
g6
sS'fwkJobReports'
p47
g0
(g13
g14
(lp48
S'FrameworkJobReport'
p49
atp50
Rp51
(dp52
g11
I00
sg19
I00
sg20
I00
sg21
I1
sbsg38
(lp53
g12
aS'debugs'
p54
ag22
ag27
aS'cerr_stats'
p55
aS'warnings'
p56
aS'default'
p57
aS'statistics'
p58
aS'cerr'
p59
ag49
aS'suppressWarning'
p60
aS'errors'
p61
aS'destinations'
p62
ag41
aS'infos'
p63
aS'categories'
p64
ag47
asg58
g0
(g13
g14
(lp65
g55
atp66
Rp67
(dp68
g11
I00
sg19
I00
sg20
I00
sg21
I1
sbsS'_filename'
p69
S'/cvmfs/cms.cern.ch/slc7_amd64_gcc700/cms/cmssw/CMSSW_10_6_28/python/FWCore/ParameterSet/Modules.py'
p70
sg62
g0
(g13
g14
(lp71
g56
ag61
ag63
ag54
ag27
ag59
atp72
Rp73
(dp74
g11
I00
sg19
I00
sg20
I00
sg21
I1
sbsg54
g0
(g28
g2
Ntp75
Rp76
(dp77
g11
I00
sg19
I00
sg32
g0
(g33
g2
Ntp78
Rp79
(dp80
g11
I00
sg19
I00
sg37
I01
sg20
I00
sbsg20
I00
sg38
(lp81
g32
asbsg56
g0
(g28
g2
Ntp82
Rp83
(dp84
g11
I00
sg19
I00
sg32
g0
(g33
g2
Ntp85
Rp86
(dp87
g11
I00
sg19
I00
sg37
I01
sg20
I00
sbsg20
I00
sg38
(lp88
g32
asbsg61
g0
(g28
g2
Ntp89
Rp90
(dp91
g11
I00
sg19
I00
sg32
g0
(g33
g2
Ntp92
Rp93
(dp94
g11
I00
sg19
I00
sg37
I01
sg20
I00
sbsg20
I00
sg38
(lp95
g32
asbsg49
g0
(g28
g2
Ntp96
Rp97
(dp98
g11
I00
sg19
I00
sg20
I00
sg57
g0
(g28
g2
Ntp99
Rp100
(dp101
g11
I00
sg19
I00
sS'limit'
p102
g0
(cFWCore.ParameterSet.Types
int32
p103
g2
Ntp104
Rp105
(dp106
g11
I00
sg19
I00
sg37
I0
sg20
I00
sbsg20
I00
sg38
(lp107
g102
asbsS'FwkJob'
p108
g0
(g28
g2
Ntp109
Rp110
(dp111
g11
I00
sg19
I00
sg20
I00
sg102
g0
(g103
g2
Ntp112
Rp113
(dp114
g11
I00
sg19
I00
sg37
I10000000
sg20
I00
sbsg38
(lp115
S'optionalPSet'
p116
ag102
asg116
g0
(g33
g2
Ntp117
Rp118
(dp119
g11
I00
sg19
I00
sg37
I01
sg20
I00
sbsbsg38
(lp120
g57
ag116
ag108
asg116
g0
(g33
g2
Ntp121
Rp122
(dp123
g11
I00
sg19
I00
sg37
I01
sg20
I00
sbsbsg60
g0
(g13
g14
(lp124
tp125
Rp126
(dp127
g11
I00
sg19
I00
sg20
I00
sg21
I1
sbsg63
g0
(g28
g2
Ntp128
Rp129
(dp130
g11
I00
sg19
I00
sg20
I00
sS'Root_NoDictionary'
p131
g0
(g28
g2
Ntp132
Rp133
(dp134
g11
I00
sg19
I00
sg20
I00
sg102
g0
(g103
g2
Ntp135
Rp136
(dp137
g11
I00
sg19
I00
sg37
I0
sg20
I00
sbsg38
(lp138
g116
ag102
asg116
g0
(g33
g2
Ntp139
Rp140
(dp141
g11
I00
sg19
I00
sg37
I01
sg20
I00
sbsbsg38
(lp142
g116
ag131
ag32
asg116
g0
(g33
g2
Ntp143
Rp144
(dp145
g11
I00
sg19
I00
sg37
I01
sg20
I00
sbsg32
g0
(g33
g2
Ntp146
Rp147
(dp148
g11
I00
sg19
I00
sg37
I01
sg20
I00
sbsbsg64
g0
(g13
g14
(lp149
g108
aS'FwkReport'
p150
aS'FwkSummary'
p151
ag131
atp152
Rp153
(dp154
g11
I00
sg19
I00
sg20
I00
sg21
I1
sbsg20
I00
sg55
g0
(g28
g2
Ntp155
Rp156
(dp157
g11
I00
sg19
I00
sg20
I00
sg116
g0
(g33
g2
Ntp158
Rp159
(dp160
g11
I00
sg19
I00
sg37
I01
sg20
I00
sbsg38
(lp161
S'threshold'
p162
aS'output'
p163
ag116
asg162
g0
(cFWCore.ParameterSet.Types
string
p164
g2
Ntp165
Rp166
(dp167
g11
I00
sg19
I00
sg37
S'WARNING'
p168
sg20
I00
sbsg163
g0
(g164
g2
Ntp169
Rp170
(dp171
g11
I00
sg19
I00
sg37
g59
sg20
I00
sbsbsg57
g0
(g28
g2
Ntp172
Rp173
(dp174
g11
I00
sg19
I00
sg20
I00
sg38
(lp175
sbsS'_inProcess'
p176
I00
sg59
g0
(g28
g2
Ntp177
Rp178
(dp179
g11
I00
sg19
I00
sS'noTimeStamps'
p180
g0
(g33
g2
Ntp181
Rp182
(dp183
g11
I00
sg19
I00
sg37
I00
sg20
I00
sbsg150
g0
(g28
g2
Ntp184
Rp185
(dp186
g11
I00
sg19
I00
sg20
I01
sS'reportEvery'
p187
g0
(g103
g2
Ntp188
Rp189
(dp190
g11
I00
sg19
I00
sg37
I2000
sg20
I01
sbsg102
g0
(g103
g2
Ntp191
Rp192
(dp193
g11
I00
sg19
I00
sg37
I10000000
sg20
I00
sbsg38
(lp194
g187
ag116
ag102
asg116
g0
(g33
g2
Ntp195
Rp196
(dp197
g11
I00
sg19
I00
sg37
I01
sg20
I00
sbsbsg20
I00
sg57
g0
(g28
g2
Ntp198
Rp199
(dp200
g11
I00
sg19
I00
sg102
g0
(g103
g2
Ntp201
Rp202
(dp203
g11
I00
sg19
I00
sg37
I10000000
sg20
I00
sbsg20
I00
sg38
(lp204
g102
asbsg131
g0
(g28
g2
Ntp205
Rp206
(dp207
g11
I00
sg19
I00
sg20
I00
sg102
g0
(g103
g2
Ntp208
Rp209
(dp210
g11
I00
sg19
I00
sg37
I0
sg20
I00
sbsg38
(lp211
g116
ag102
asg116
g0
(g33
g2
Ntp212
Rp213
(dp214
g11
I00
sg19
I00
sg37
I01
sg20
I00
sbsbsS'INFO'
p215
g0
(g28
g2
Ntp216
Rp217
(dp218
g11
I00
sg19
I00
sg102
g0
(g103
g2
Ntp219
Rp220
(dp221
g11
I00
sg19
I00
sg37
I0
sg20
I00
sbsg20
I00
sg38
(lp222
g102
asbsg116
g0
(g33
g2
Ntp223
Rp224
(dp225
g11
I00
sg19
I00
sg37
I01
sg20
I00
sbsg108
g0
(g28
g2
Ntp226
Rp227
(dp228
g11
I00
sg19
I00
sg20
I00
sg102
g0
(g103
g2
Ntp229
Rp230
(dp231
g11
I00
sg19
I00
sg37
I0
sg20
I00
sbsg38
(lp232
g116
ag102
asg116
g0
(g33
g2
Ntp233
Rp234
(dp235
g11
I00
sg19
I00
sg37
I01
sg20
I00
sbsbsg151
g0
(g28
g2
Ntp236
Rp237
(dp238
g11
I00
sg19
I00
sg20
I00
sg187
g0
(g103
g2
Ntp239
Rp240
(dp241
g11
I00
sg19
I00
sg37
I1
sg20
I00
sbsg102
g0
(g103
g2
Ntp242
Rp243
(dp244
g11
I00
sg19
I00
sg37
I10000000
sg20
I00
sbsg38
(lp245
g187
ag116
ag102
asg116
g0
(g33
g2
Ntp246
Rp247
(dp248
g11
I00
sg19
I00
sg37
I01
sg20
I00
sbsbsg38
(lp249
g215
ag180
ag150
ag57
ag131
ag162
ag108
ag151
ag116
asg162
g0
(g164
g2
Ntp250
Rp251
(dp252
g11
I00
sg19
I00
sg37
g215
sg20
I00
sbsbsbsS'_Process__sequences'
p253
(dp254
sS'p'
p255
g0
(cFWCore.ParameterSet.SequenceTypes
Path
p256
g2
Ntp257
Rp258
(dp259
g11
I00
sS'_seq'
p260
g0
(cFWCore.ParameterSet.SequenceTypes
_SequenceCollection
p261
g2
Ntp262
Rp263
(dp264
S'_collection'
p265
(lp266
g0
(cFWCore.ParameterSet.Modules
EDAnalyzer
p267
g2
Ntp268
Rp269
(dp270
g38
(lp271
S'lheSrc'
p272
asg11
I00
sg272
g0
(cFWCore.ParameterSet.Types
InputTag
p273
g2
Ntp274
Rp275
(dp276
g11
I00
sg19
I01
sg20
I00
sS'_InputTag__moduleLabel'
p277
S'externalLHEProducer'
p278
sS'_InputTag__processName'
p279
S'GEN'
p280
sS'_InputTag__productInstance'
p281
S''
p282
sbsg20
I00
sg40
I30
sg69
S'/afs/cern.ch/user/b/beozek/private/CMSSW_10_6_28/src/MyAnalyzer/LHEMttbarAnalyzer/cfg_900Inf.py'
p283
sS'_Labelable__label'
p284
S'LHEMttbarAnalyzer'
p285
sg46
g285
sbasbsg284
g255
sg20
I00
sS'_tasks'
p286
g0
(cFWCore.ParameterSet.OrderedSet
OrderedSet
p287
g2
Ntp288
Rp289
(dp290
S'map'
p291
(dp292
sS'end'
p293
(lp294
Nag294
ag294
asbsbsS'_Process__services'
p295
(dp296
g6
g9
sS'DQMStore'
p297
g0
(g7
g2
Ntp298
Rp299
(dp300
g38
(lp301
S'referenceFileName'
p302
aS'verbose'
p303
aS'collateHistograms'
p304
aS'enableMultiThread'
p305
aS'forceResetOnBeginLumi'
p306
aS'saveByLumi'
p307
aS'LSbasedMode'
p308
aS'verboseQT'
p309
asg11
I00
sg176
I01
sg303
g0
(g103
g2
Ntp310
Rp311
(dp312
g11
I00
sg19
I00
sg37
I0
sg20
I00
sbsg304
g0
(g33
g2
Ntp313
Rp314
(dp315
g11
I00
sg19
I00
sg37
I00
sg20
I00
sbsg302
g0
(g164
g2
Ntp316
Rp317
(dp318
g11
I00
sg19
I00
sg37
g282
sg20
I00
sbsg305
g0
(g33
g2
Ntp319
Rp320
(dp321
g11
I00
sg19
I00
sg37
I00
sg20
I00
sbsg306
g0
(g33
g2
Ntp322
Rp323
(dp324
g11
I00
sg19
I00
sg37
I00
sg20
I00
sbsg40
I14
sg307
g0
(g33
g2
Ntp325
Rp326
(dp327
g11
I00
sg19
I00
sg37
I00
sg20
I00
sbsg308
g0
(g33
g2
Ntp328
Rp329
(dp330
g11
I00
sg19
I00
sg37
I00
sg20
I00
sbsg69
g70
sg309
g0
(g103
g2
Ntp331
Rp332
(dp333
g11
I00
sg19
I00
sg37
I0
sg20
I00
sbsg46
g297
sg20
I00
sbsS'RandomNumberGeneratorService'
p334
g0
(g7
g2
Ntp335
Rp336
(dp337
g11
I00
sS'horeco'
p338
g0
(g28
g2
Ntp339
Rp340
(dp341
g11
I00
sg19
I01
sg20
I00
sS'initialSeed'
p342
g0
(cFWCore.ParameterSet.Types
uint32
p343
g2
Ntp344
Rp345
(dp346
g11
I00
sg19
I00
sg37
I541321
sg20
I00
sbsg38
(lp347
g342
aS'engineName'
p348
asg348
g0
(g164
g2
Ntp349
Rp350
(dp351
g11
I00
sg19
I00
sg37
S'MixMaxRng'
p352
sg20
I00
sbsbsg40
I14
sg278
g0
(g28
g2
Ntp353
Rp354
(dp355
g11
I00
sg19
I01
sg20
I00
sg342
g0
(g343
g2
Ntp356
Rp357
(dp358
g11
I00
sg19
I00
sg37
I234567
sg20
I00
sbsg38
(lp359
g342
ag348
asg348
g0
(g164
g2
Ntp360
Rp361
(dp362
g11
I00
sg19
I00
sg37
g352
sg20
I00
sbsbsS'saveFileName'
p363
g0
(g164
g2
Ntp364
Rp365
(dp366
g11
I00
sg19
I00
sg37
g282
sg20
I00
sbsS'fastSimProducer'
p367
g0
(g28
g2
Ntp368
Rp369
(dp370
g11
I00
sg19
I01
sg20
I00
sg342
g0
(g343
g2
Ntp371
Rp372
(dp373
g11
I00
sg19
I00
sg37
I13579
sg20
I00
sbsg38
(lp374
g342
ag348
asg348
g350
sbsS'hbhereco'
p375
g0
(g28
g2
Ntp376
Rp377
(dp378
g11
I00
sg19
I01
sg20
I00
sg342
g0
(g343
g2
Ntp379
Rp380
(dp381
g11
I00
sg19
I00
sg37
I541321
sg20
I00
sbsg38
(lp382
g342
ag348
asg348
g350
sbsS'simSiStripDigiSimLink'
p383
g0
(g28
g2
Ntp384
Rp385
(dp386
g11
I00
sg19
I01
sg20
I00
sg342
g0
(g343
g2
Ntp387
Rp388
(dp389
g11
I00
sg19
I00
sg37
I1234567
sg20
I00
sbsg38
(lp390
g342
ag348
asg348
g361
sbsS'paramMuons'
p391
g0
(g28
g2
Ntp392
Rp393
(dp394
g11
I00
sg19
I01
sg20
I00
sg342
g0
(g343
g2
Ntp395
Rp396
(dp397
g11
I00
sg19
I00
sg37
I54525
sg20
I00
sbsg38
(lp398
g342
ag348
asg348
g350
sbsS'famosPileUp'
p399
g0
(g28
g2
Ntp400
Rp401
(dp402
g11
I00
sg19
I01
sg20
I00
sg342
g0
(g343
g2
Ntp403
Rp404
(dp405
g11
I00
sg19
I00
sg37
I918273
sg20
I00
sbsg38
(lp406
g342
ag348
asg348
g350
sbsS'simMuonDTDigis'
p407
g0
(g28
g2
Ntp408
Rp409
(dp410
g11
I00
sg19
I01
sg20
I00
sg342
g0
(g343
g2
Ntp411
Rp412
(dp413
g11
I00
sg19
I00
sg37
I1234567
sg20
I00
sbsg38
(lp414
g342
ag348
asg348
g361
sbsg46
g334
sg38
(lp415
g338
ag278
ag363
aS'mixRecoTracks'
p416
ag375
ag383
ag391
ag399
ag407
aS'ecalPreshowerRecHit'
p417
aS'generator'
p418
aS'simMuonRPCDigis'
p419
aS'hiSignal'
p420
aS'CTPPSFastRecHits'
p421
aS'mixSimCaloHits'
p422
aS'mix'
p423
aS'fastTrackerRecHits'
p424
aS'VtxSmeared'
p425
aS'LHCTransport'
p426
aS'ecalRecHit'
p427
aS'hfreco'
p428
ag367
aS'hiSignalG4SimHits'
p429
aS'MuonSimHits'
p430
aS'g4SimHits'
p431
aS'hiSignalLHCTransport'
p432
aS'mixGenPU'
p433
aS'l1ParamMuons'
p434
aS'simBeamSpotFilter'
p435
aS'simMuonCSCDigis'
p436
aS'mixData'
p437
asg417
g0
(g28
g2
Ntp438
Rp439
(dp440
g11
I00
sg19
I01
sg20
I00
sg342
g0
(g343
g2
Ntp441
Rp442
(dp443
g11
I00
sg19
I00
sg37
I6541321
sg20
I00
sbsg38
(lp444
g342
ag348
asg348
g350
sbsg176
I01
sg418
g0
(g28
g2
Ntp445
Rp446
(dp447
g11
I00
sg19
I01
sg20
I00
sg342
g0
(g343
g2
Ntp448
Rp449
(dp450
g11
I00
sg19
I00
sg37
I123456789
sg20
I00
sbsg38
(lp451
g342
ag348
asg348
g361
sbsg419
g0
(g28
g2
Ntp452
Rp453
(dp454
g11
I00
sg19
I01
sg20
I00
sg342
g0
(g343
g2
Ntp455
Rp456
(dp457
g11
I00
sg19
I00
sg37
I1234567
sg20
I00
sbsg38
(lp458
g342
ag348
asg348
g361
sbsg420
g0
(g28
g2
Ntp459
Rp460
(dp461
g11
I00
sg19
I01
sg20
I00
sg342
g0
(g343
g2
Ntp462
Rp463
(dp464
g11
I00
sg19
I00
sg37
I123456789
sg20
I00
sbsg38
(lp465
g342
ag348
asg348
g361
sbsg421
g0
(g28
g2
Ntp466
Rp467
(dp468
g11
I00
sg19
I01
sg20
I00
sg342
g0
(g343
g2
Ntp469
Rp470
(dp471
g11
I00
sg19
I00
sg37
I1357987
sg20
I00
sbsg38
(lp472
g342
ag348
asg348
g350
sbsg422
g0
(g28
g2
Ntp473
Rp474
(dp475
g11
I00
sg19
I01
sg20
I00
sg342
g0
(g343
g2
Ntp476
Rp477
(dp478
g11
I00
sg19
I00
sg37
I918273
sg20
I00
sbsg38
(lp479
g342
ag348
asg348
g350
sbsg423
g0
(g28
g2
Ntp480
Rp481
(dp482
g11
I00
sg19
I01
sg20
I00
sg342
g0
(g343
g2
Ntp483
Rp484
(dp485
g11
I00
sg19
I00
sg37
I12345
sg20
I00
sbsg38
(lp486
g342
ag348
asg348
g361
sbsg424
g0
(g28
g2
Ntp487
Rp488
(dp489
g11
I00
sg19
I01
sg20
I00
sg342
g0
(g343
g2
Ntp490
Rp491
(dp492
g11
I00
sg19
I00
sg37
I24680
sg20
I00
sbsg38
(lp493
g342
ag348
asg348
g350
sbsg425
g0
(g28
g2
Ntp494
Rp495
(dp496
g11
I00
sg19
I01
sg20
I00
sg342
g0
(g343
g2
Ntp497
Rp498
(dp499
g11
I00
sg19
I00
sg37
I98765432
sg20
I00
sbsg38
(lp500
g342
ag348
asg348
g361
sbsg426
g0
(g28
g2
Ntp501
Rp502
(dp503
g11
I00
sg19
I01
sg20
I00
sg342
g0
(g343
g2
Ntp504
Rp505
(dp506
g11
I00
sg19
I00
sg37
I87654321
sg20
I00
sbsg38
(lp507
g342
ag348
asg348
g350
sbsg427
g0
(g28
g2
Ntp508
Rp509
(dp510
g11
I00
sg19
I01
sg20
I00
sg342
g0
(g343
g2
Ntp511
Rp512
(dp513
g11
I00
sg19
I00
sg37
I654321
sg20
I00
sbsg38
(lp514
g342
ag348
asg348
g350
sbsg437
g0
(g28
g2
Ntp515
Rp516
(dp517
g11
I00
sg19
I01
sg20
I00
sg342
g0
(g343
g2
Ntp518
Rp519
(dp520
g11
I00
sg19
I00
sg37
I12345
sg20
I00
sbsg38
(lp521
g342
ag348
asg348
g361
sbsg416
g0
(g28
g2
Ntp522
Rp523
(dp524
g11
I00
sg19
I01
sg20
I00
sg342
g0
(g343
g2
Ntp525
Rp526
(dp527
g11
I00
sg19
I00
sg37
I918273
sg20
I00
sbsg38
(lp528
g342
ag348
asg348
g350
sbsg429
g0
(g28
g2
Ntp529
Rp530
(dp531
g11
I00
sg19
I01
sg20
I00
sg342
g0
(g343
g2
Ntp532
Rp533
(dp534
g11
I00
sg19
I00
sg37
I11
sg20
I00
sbsg38
(lp535
g342
ag348
asg348
g361
sbsg430
g0
(g28
g2
Ntp536
Rp537
(dp538
g11
I00
sg19
I01
sg20
I00
sg342
g0
(g343
g2
Ntp539
Rp540
(dp541
g11
I00
sg19
I00
sg37
I987346
sg20
I00
sbsg38
(lp542
g342
ag348
asg348
g350
sbsg431
g0
(g28
g2
Ntp543
Rp544
(dp545
g11
I00
sg19
I01
sg20
I00
sg342
g0
(g343
g2
Ntp546
Rp547
(dp548
g11
I00
sg19
I00
sg37
I11
sg20
I00
sbsg38
(lp549
g342
ag348
asg348
g361
sbsg432
g0
(g28
g2
Ntp550
Rp551
(dp552
g11
I00
sg19
I01
sg20
I00
sg342
g0
(g343
g2
Ntp553
Rp554
(dp555
g11
I00
sg19
I00
sg37
I88776655
sg20
I00
sbsg38
(lp556
g342
ag348
asg348
g350
sbsg433
g0
(g28
g2
Ntp557
Rp558
(dp559
g11
I00
sg19
I01
sg20
I00
sg342
g0
(g343
g2
Ntp560
Rp561
(dp562
g11
I00
sg19
I00
sg37
I918273
sg20
I00
sbsg38
(lp563
g342
ag348
asg348
g350
sbsg434
g0
(g28
g2
Ntp564
Rp565
(dp566
g11
I00
sg19
I01
sg20
I00
sg342
g0
(g343
g2
Ntp567
Rp568
(dp569
g11
I00
sg19
I00
sg37
I6453209
sg20
I00
sbsg38
(lp570
g342
ag348
asg348
g350
sbsg20
I00
sg435
g0
(g28
g2
Ntp571
Rp572
(dp573
g11
I00
sg19
I01
sg20
I00
sg342
g0
(g343
g2
Ntp574
Rp575
(dp576
g11
I00
sg19
I00
sg37
I87654321
sg20
I00
sbsg38
(lp577
g342
ag348
asg348
g361
sbsg436
g0
(g28
g2
Ntp578
Rp579
(dp580
g11
I00
sg19
I01
sg20
I00
sg342
g0
(g343
g2
Ntp581
Rp582
(dp583
g11
I00
sg19
I00
sg37
I11223344
sg20
I00
sbsg38
(lp584
g342
ag348
asg348
g361
sbsg428
g0
(g28
g2
Ntp585
Rp586
(dp587
g11
I00
sg19
I01
sg20
I00
sg342
g0
(g343
g2
Ntp588
Rp589
(dp590
g11
I00
sg19
I00
sg37
I541321
sg20
I00
sbsg38
(lp591
g342
ag348
asg348
g350
sbsg69
g70
sbsS'TFileService'
p592
g0
(g7
g2
Ntp593
Rp594
(dp595
g38
(lp596
S'fileName'
p597
asg11
I00
sg176
I01
sg20
I00
sg40
I14
sg69
g70
sg597
g0
(g164
g2
Ntp598
Rp599
(dp600
g11
I00
sg19
I01
sg37
S'lhe_SM_900Inf.root'
p601
sg20
I00
sbsg46
g592
sbssg297
g299
sS'_Process__source'
p602
g0
(cFWCore.ParameterSet.Modules
Source
p603
g2
Ntp604
Rp605
(dp606
g38
(lp607
S'fileNames'
p608
asg11
I00
sg20
I00
sg40
I196
sg69
g70
sg608
g0
(g13
g14
(lp609
S'root://cms-xrd-global.cern.ch//store/mc/RunIISummer20UL17MiniAODv2/TTtoLNu2Q-1Jets-smeft_MTT-900toInf_TuneCP5_13TeV_madgraphMLM-pythia8/MINIAODSIM/106X_mc2017_realistic_v9-v2/2820000/042383E2-DEA9-FE4A-B373-5EBD52D45D94.root'
p610
aS'root://cms-xrd-global.cern.ch//store/mc/RunIISummer20UL17MiniAODv2/TTtoLNu2Q-1Jets-smeft_MTT-900toInf_TuneCP5_13TeV_madgraphMLM-pythia8/MINIAODSIM/106X_mc2017_realistic_v9-v2/2820000/3B8E5807-BD94-2C42-BEEF-80739D50D2AE.root'
p611
aS'root://cms-xrd-global.cern.ch//store/mc/RunIISummer20UL17MiniAODv2/TTtoLNu2Q-1Jets-smeft_MTT-900toInf_TuneCP5_13TeV_madgraphMLM-pythia8/MINIAODSIM/106X_mc2017_realistic_v9-v2/2820000/63583524-0147-5241-AF25-224B2FF3179D.root'
p612
aS'root://cms-xrd-global.cern.ch//store/mc/RunIISummer20UL17MiniAODv2/TTtoLNu2Q-1Jets-smeft_MTT-900toInf_TuneCP5_13TeV_madgraphMLM-pythia8/MINIAODSIM/106X_mc2017_realistic_v9-v2/2820000/A525BF68-D05D-F949-858F-8180D6295438.root'
p613
aS'root://cms-xrd-global.cern.ch//store/mc/RunIISummer20UL17MiniAODv2/TTtoLNu2Q-1Jets-smeft_MTT-900toInf_TuneCP5_13TeV_madgraphMLM-pythia8/MINIAODSIM/106X_mc2017_realistic_v9-v2/2820000/05D30B91-CAFB-5345-A97A-CEA06BADFF8D.root'
p614
aS'root://cms-xrd-global.cern.ch//store/mc/RunIISummer20UL17MiniAODv2/TTtoLNu2Q-1Jets-smeft_MTT-900toInf_TuneCP5_13TeV_madgraphMLM-pythia8/MINIAODSIM/106X_mc2017_realistic_v9-v2/2820000/3BDFCDC6-BAA7-E941-B9C9-F6A504863479.root'
p615
aS'root://cms-xrd-global.cern.ch//store/mc/RunIISummer20UL17MiniAODv2/TTtoLNu2Q-1Jets-smeft_MTT-900toInf_TuneCP5_13TeV_madgraphMLM-pythia8/MINIAODSIM/106X_mc2017_realistic_v9-v2/2820000/66BD19E9-D12F-B846-8BD0-D9FD8F47EF18.root'
p616
aS'root://cms-xrd-global.cern.ch//store/mc/RunIISummer20UL17MiniAODv2/TTtoLNu2Q-1Jets-smeft_MTT-900toInf_TuneCP5_13TeV_madgraphMLM-pythia8/MINIAODSIM/106X_mc2017_realistic_v9-v2/2820000/A5761B73-601E-AF4C-A721-443F8404BC97.root'
p617
aS'root://cms-xrd-global.cern.ch//store/mc/RunIISummer20UL17MiniAODv2/TTtoLNu2Q-1Jets-smeft_MTT-900toInf_TuneCP5_13TeV_madgraphMLM-pythia8/MINIAODSIM/106X_mc2017_realistic_v9-v2/2820000/05F64EF1-ACF9-1649-8D55-DDD105FEBFDE.root'
p618
aS'root://cms-xrd-global.cern.ch//store/mc/RunIISummer20UL17MiniAODv2/TTtoLNu2Q-1Jets-smeft_MTT-900toInf_TuneCP5_13TeV_madgraphMLM-pythia8/MINIAODSIM/106X_mc2017_realistic_v9-v2/2820000/3F5D2F9F-78D1-0C4F-9C05-FDC3873A1B33.root'
p619
atp620
Rp621
(dp622
g11
I00
sg19
I00
sg20
I00
sg21
I1
sbsg46
S'PoolSource'
p623
sbsS'_Process__aliases'
p624
(dp625
sS'_Process__psets'
p626
(dp627
S'maxEvents'
p628
g0
(g28
g2
Ntp629
Rp630
(dp631
g11
I00
sg19
I00
sg20
I00
sg38
(lp632
S'input'
p633
asg284
g628
sg633
g0
(g103
g2
Ntp634
Rp635
(dp636
g11
I00
sg19
I00
sg37
I-1
sg20
I00
sbsbssg592
g594
sS'_Process__essources'
p637
(dp638
S'HepPDTESSource'
p639
g0
(cFWCore.ParameterSet.Modules
ESSource
p640
g2
Ntp641
Rp642
(dp643
g38
(lp644
S'pdtFileName'
p645
asg11
I00
sg645
g0
(cFWCore.ParameterSet.Types
FileInPath
p646
g2
Ntp647
Rp648
(dp649
g11
I00
sg19
I01
sg37
S'SimGeneral/HepPDTESSource/data/pythiaparticle.tbl'
p650
sg20
I00
sbsg20
I00
sg40
I4
sg69
S'/cvmfs/cms.cern.ch/slc7_amd64_gcc700/cms/cmssw/CMSSW_10_6_28/python/SimGeneral/HepPDTESSource/pythiapdt_cfi.py'
p651
sg284
g639
sg46
g639
sbssg623
g605
sS'randomEngineStateProducer'
p652
g0
(cFWCore.ParameterSet.Modules
EDProducer
p653
g2
Ntp654
Rp655
(dp656
g38
(lp657
sg11
I00
sg20
I00
sg40
I162
sg69
S'/cvmfs/cms.cern.ch/slc7_amd64_gcc700/cms/cmssw/CMSSW_10_6_28/python/IOMC/RandomEngine/IOMC_cff.py'
p658
sg284
g652
sg46
S'RandomEngineStateProducer'
p659
sbsg628
g630
sS'source'
p660
g605
sS'_Process__vpsets'
p661
(dp662
sg334
g336
sS'_Process__name'
p663
S'ANALYSIS'
p664
sS'_Process__subProcesses'
p665
(lp666
sS'_Process__switchproducers'
p667
(dp668
sS'_cloneToObjectDict'
p669
(dp670
I139950371384016
g642
sI139950371417680
g655
sI139950371457104
g258
sI139950371456720
g630
sI139950371457040
g269
ssS'_Process__esprefers'
p671
(dp672
sS'_Process__schedule'
p673
Nsg285
g269
sg639
g642
sS'_Process__outputmodules'
p674
(dp675
sS'_Process__analyzers'
p676
(dp677
g285
g269
ssS'_Process__InExtendCall'
p678
I00
sS'_Process__modifiers'
p679
(tsS'_Process__producers'
p680
(dp681
g652
g655
ssS'_Process__filters'
p682
(dp683
sS'_Process__looper'
p684
NsS'_Process__endpaths'
p685
g0
(cFWCore.ParameterSet.DictTypes
SortedKeysDict
p686
c__builtin__
dict
p687
(dp688
tp689
Rp690
(dp691
S'list'
p692
(lp693
sbsS'_Process__esproducers'
p694
(dp695
sS'_Process__tasks'
p696
(dp697
sS'_Process__paths'
p698
g0
(g686
g687
(dp699
g255
g258
stp700
Rp701
(dp702
g692
(lp703
g255
asbsS'_Process__partialschedules'
p704
(dp705
sS'_Process__isStrict'
p706
I00
sb.